target datalayout = "e-m:e-p270:32:32-p271:32:32-p272:64:64-i64:64-i128:128-f80:128-n8:16:32:64-S128"
target triple = "x86_64-pc-linux-gnu"

%struct._zval_struct = type { %union._zend_value, %union.anon, %union.anon.2 }
%union._zend_value = type { i64 }
%union.anon = type { i32 }
%union.anon.2 = type { i32 }
%struct._zend_refcounted_h = type { i32, %union.anon.3 }
%union.anon.3 = type { i32 }
%struct._spl_heap_object = type { ptr, i32, ptr, ptr, %struct._zend_object }
%struct._zend_object = type { %struct._zend_refcounted_h, i32, ptr, ptr, ptr, [1 x %struct._zval_struct] }
%struct._spl_ptr_heap = type { ptr, ptr, ptr, ptr, i32, i32, i64, i64 }

@.str.16 = private unnamed_addr constant [6 x i8] c"count\00", align 1

; Function Attrs: nounwind uwtable
define internal i32 @spl_ptr_heap_count(ptr noundef %0) #0 {
  %2 = alloca ptr, align 8
  store ptr %0, ptr %2, align 8
  %3 = load ptr, ptr %2, align 8
  %4 = getelementptr inbounds %struct._spl_ptr_heap, ptr %3, i32 0, i32 4
  %5 = load i32, ptr %4, align 8
  ret i32 %5
}

; Function Attrs: nounwind uwtable
define internal ptr @spl_heap_from_obj(ptr noundef %0) #0 {
  %2 = alloca ptr, align 8
  store ptr %0, ptr %2, align 8
  %3 = load ptr, ptr %2, align 8
  %4 = getelementptr inbounds i8, ptr %3, i64 -32
  ret ptr %4
}

; Function Attrs: nounwind uwtable
define internal i32 @spl_heap_object_count_elements(ptr noundef %0, ptr noundef %1) #0 {
  %3 = alloca ptr, align 8
  %4 = alloca ptr, align 8
  %5 = alloca ptr, align 8
  %6 = alloca ptr, align 8
  %7 = alloca ptr, align 8
  %8 = alloca ptr, align 8
  %9 = alloca ptr, align 8
  %10 = alloca ptr, align 8
  %11 = alloca i32, align 4
  %12 = alloca ptr, align 8
  %13 = alloca ptr, align 8
  %14 = alloca ptr, align 8
  %15 = alloca %struct._zval_struct, align 8
  store ptr %0, ptr %12, align 8
  store ptr %1, ptr %13, align 8
  %16 = load ptr, ptr %12, align 8
  %17 = call ptr @spl_heap_from_obj(ptr noundef %16)
  store ptr %17, ptr %14, align 8
  %18 = load ptr, ptr %14, align 8
  %19 = getelementptr inbounds %struct._spl_heap_object, ptr %18, i32 0, i32 3
  %20 = load ptr, ptr %19, align 8
  %21 = icmp ne ptr %20, null
  br i1 %21, label %22, label %61

22:                                               ; preds = %2
  %23 = load ptr, ptr %12, align 8
  %24 = load ptr, ptr %14, align 8
  %25 = getelementptr inbounds %struct._spl_heap_object, ptr %24, i32 0, i32 4
  %26 = getelementptr inbounds %struct._zend_object, ptr %25, i32 0, i32 2
  %27 = load ptr, ptr %26, align 8
  %28 = load ptr, ptr %14, align 8
  %29 = getelementptr inbounds %struct._spl_heap_object, ptr %28, i32 0, i32 3
  store ptr %23, ptr %3, align 8
  store ptr %27, ptr %4, align 8
  store ptr %29, ptr %5, align 8
  store ptr @.str.16, ptr %6, align 8
  store ptr %15, ptr %7, align 8
  %30 = load ptr, ptr %3, align 8
  %31 = load ptr, ptr %4, align 8
  %32 = load ptr, ptr %5, align 8
  %33 = load ptr, ptr %6, align 8
  %34 = load ptr, ptr %6, align 8
  %35 = call i64 @strlen(ptr noundef %34) #10
  %36 = load ptr, ptr %7, align 8
  %37 = call ptr @zend_call_method(ptr noundef %30, ptr noundef %31, ptr noundef %32, ptr noundef %33, i64 noundef %35, ptr noundef %36, i32 noundef 0, ptr noundef null, ptr noundef null) #9
  store ptr %15, ptr %10, align 8
  %38 = load ptr, ptr %10, align 8
  %39 = getelementptr inbounds %struct._zval_struct, ptr %38, i32 0, i32 1
  %40 = load i8, ptr %39, align 8
  %41 = zext i8 %40 to i32
  %42 = icmp eq i32 %41, 0
  br i1 %42, label %59, label %43

43:                                               ; preds = %22
  store ptr %15, ptr %9, align 8
  %44 = load ptr, ptr %9, align 8
  store ptr %44, ptr %8, align 8
  %45 = load ptr, ptr %8, align 8
  %46 = getelementptr inbounds %struct._zval_struct, ptr %45, i32 0, i32 1
  %47 = load i8, ptr %46, align 8
  %48 = zext i8 %47 to i32
  %49 = icmp eq i32 %48, 4
  br i1 %49, label %50, label %53

50:                                               ; preds = %43
  %51 = load ptr, ptr %9, align 8
  %52 = load i64, ptr %51, align 8
  br label %56

53:                                               ; preds = %43
  %54 = load ptr, ptr %9, align 8
  %55 = call i64 @zval_get_long_func(ptr noundef %54, i1 noundef zeroext false) #9
  br label %56

56:                                               ; preds = %53, %50
  %57 = phi i64 [ %52, %50 ], [ %55, %53 ]
  %58 = load ptr, ptr %13, align 8
  store i64 %57, ptr %58, align 8
  call void @zval_ptr_dtor(ptr noundef %15)
  store i32 0, ptr %11, align 4
  br label %68

59:                                               ; preds = %22
  %60 = load ptr, ptr %13, align 8
  store i64 0, ptr %60, align 8
  store i32 -1, ptr %11, align 4
  br label %68

61:                                               ; preds = %2
  %62 = load ptr, ptr %14, align 8
  %63 = getelementptr inbounds %struct._spl_heap_object, ptr %62, i32 0, i32 0
  %64 = load ptr, ptr %63, align 8
  %65 = call i32 @spl_ptr_heap_count(ptr noundef %64)
  %66 = sext i32 %65 to i64
  %67 = load ptr, ptr %13, align 8
  store i64 %66, ptr %67, align 8
  store i32 0, ptr %11, align 4
  br label %68

68:                                               ; preds = %61, %59, %56
  %69 = load i32, ptr %11, align 4
  ret i32 %69
}