; Function Attrs: nounwind uwtable
define internal noundef i32 @spl_heap_object_count_elements(ptr noundef %0, ptr nocapture noundef writeonly %1) #0 {
  %3 = alloca %struct._zval_struct, align 8
  %4 = getelementptr inbounds i8, ptr %0, i64 -8
  %5 = load ptr, ptr %4, align 8
  %.not = icmp eq ptr %5, null
  br i1 %.not, label %19, label %6

6:                                                ; preds = %2
  %7 = getelementptr inbounds i8, ptr %0, i64 16
  %8 = load ptr, ptr %7, align 8
  %9 = call ptr @zend_call_method(ptr noundef nonnull %0, ptr noundef %8, ptr noundef nonnull %4, ptr noundef nonnull @.str.16, i64 noundef 5, ptr noundef nonnull %3, i32 noundef 0, ptr noundef null, ptr noundef null) #14
  %10 = getelementptr inbounds i8, ptr %3, i64 8
  %11 = load i8, ptr %10, align 8
  switch i8 %11, label %14 [
    i8 0, label %18
    i8 4, label %12
  ]

12:                                               ; preds = %6
  %13 = load i64, ptr %3, align 8
  br label %16

14:                                               ; preds = %6
  %15 = call i64 @zval_get_long_func(ptr noundef nonnull %3, i1 noundef zeroext false) #14
  br label %16

16:                                               ; preds = %14, %12
  %17 = phi i64 [ %13, %12 ], [ %15, %14 ]
  store i64 %17, ptr %1, align 8
  call void @zval_ptr_dtor(ptr noundef nonnull %3) #14
  br label %24

18:                                               ; preds = %6
  store i64 0, ptr %1, align 8
  br label %24

19:                                               ; preds = %2
  %20 = getelementptr inbounds i8, ptr %0, i64 -32
  %21 = load ptr, ptr %20, align 8
  %22 = getelementptr i8, ptr %21, i64 32
  %.val = load i32, ptr %22, align 8
  %23 = sext i32 %.val to i64
  store i64 %23, ptr %1, align 8
  br label %24

24:                                               ; preds = %19, %18, %16
  %.0 = phi i32 [ -1, %18 ], [ 0, %16 ], [ 0, %19 ]
  ret i32 %.0
}